target datalayout = "e-m:e-p270:32:32-p271:32:32-p272:64:64-i64:64-i128:128-f80:128-n8:16:32:64-S128"
target triple = "x86_64-pc-linux-gnu"

%"struct.std::_Vector_base" = type { %"struct.std::_Vector_base<cv::text::(anonymous namespace)::Ray, std::allocator<cv::text::(anonymous namespace)::Ray>>::_Vector_impl" }
%"struct.std::_Vector_base<cv::text::(anonymous namespace)::Ray, std::allocator<cv::text::(anonymous namespace)::Ray>>::_Vector_impl" = type { %"struct.std::_Vector_base<cv::text::(anonymous namespace)::Ray, std::allocator<cv::text::(anonymous namespace)::Ray>>::_Vector_impl_data" }
%"struct.std::_Vector_base<cv::text::(anonymous namespace)::Ray, std::allocator<cv::text::(anonymous namespace)::Ray>>::_Vector_impl_data" = type { ptr, ptr, ptr }
%"struct.cv::text::(anonymous namespace)::Ray" = type { %"struct.cv::text::(anonymous namespace)::SWTPoint", %"struct.cv::text::(anonymous namespace)::SWTPoint", %"class.std::vector.15" }
%"struct.cv::text::(anonymous namespace)::SWTPoint" = type { i32, i32, float }
%"class.std::vector.15" = type { %"struct.std::_Vector_base.16" }
%"struct.std::_Vector_base.16" = type { %"struct.std::_Vector_base<cv::text::(anonymous namespace)::SWTPoint, std::allocator<cv::text::(anonymous namespace)::SWTPoint>>::_Vector_impl" }
%"struct.std::_Vector_base<cv::text::(anonymous namespace)::SWTPoint, std::allocator<cv::text::(anonymous namespace)::SWTPoint>>::_Vector_impl" = type { %"struct.std::_Vector_base<cv::text::(anonymous namespace)::SWTPoint, std::allocator<cv::text::(anonymous namespace)::SWTPoint>>::_Vector_impl_data" }
%"struct.std::_Vector_base<cv::text::(anonymous namespace)::SWTPoint, std::allocator<cv::text::(anonymous namespace)::SWTPoint>>::_Vector_impl_data" = type { ptr, ptr, ptr }

; Function Attrs: mustprogress nounwind uwtable
define internal void @_ZNSt15__new_allocatorIN2cv4text12_GLOBAL__N_18SWTPointEE10deallocateEPS3_m(ptr noundef nonnull align 1 dereferenceable(1) %0, ptr noundef %1, i64 noundef %2) #8 align 2 {
  %4 = alloca ptr, align 8
  %5 = alloca ptr, align 8
  %6 = alloca i64, align 8
  store ptr %0, ptr %4, align 8, !tbaa !206
  store ptr %1, ptr %5, align 8, !tbaa !152
  store i64 %2, ptr %6, align 8, !tbaa !84
  %7 = load ptr, ptr %5, align 8, !tbaa !152
  call void @_ZdlPv(ptr noundef %7) #23
  ret void
}

; Function Attrs: mustprogress uwtable
define internal void @_ZNSt16allocator_traitsISaIN2cv4text12_GLOBAL__N_18SWTPointEEE10deallocateERS4_PS3_m(ptr noundef nonnull align 1 dereferenceable(1) %0, ptr noundef %1, i64 noundef %2) #3 align 2 {
  %4 = alloca ptr, align 8
  %5 = alloca ptr, align 8
  %6 = alloca i64, align 8
  store ptr %0, ptr %4, align 8, !tbaa !202
  store ptr %1, ptr %5, align 8, !tbaa !152
  store i64 %2, ptr %6, align 8, !tbaa !84
  %7 = load ptr, ptr %4, align 8, !tbaa !202
  %8 = load ptr, ptr %5, align 8, !tbaa !152
  %9 = load i64, ptr %6, align 8, !tbaa !84
  call void @_ZNSt15__new_allocatorIN2cv4text12_GLOBAL__N_18SWTPointEE10deallocateEPS3_m(ptr noundef nonnull align 1 dereferenceable(1) %7, ptr noundef %8, i64 noundef %9)
  ret void
}

; Function Attrs: mustprogress nounwind uwtable
define internal void @_ZNSt12_Destroy_auxILb1EE9__destroyIPN2cv4text12_GLOBAL__N_18SWTPointEEEvT_S7_(ptr noundef %0, ptr noundef %1) #8 align 2 {
  %3 = alloca ptr, align 8
  %4 = alloca ptr, align 8
  store ptr %0, ptr %3, align 8, !tbaa !152
  store ptr %1, ptr %4, align 8, !tbaa !152
  ret void
}

; Function Attrs: mustprogress nounwind uwtable
define internal void @_ZNSt15__new_allocatorIN2cv4text12_GLOBAL__N_18SWTPointEED2Ev(ptr noundef nonnull align 1 dereferenceable(1) %0) unnamed_addr #8 align 2 {
  %2 = alloca ptr, align 8
  store ptr %0, ptr %2, align 8, !tbaa !206
  ret void
}

; Function Attrs: mustprogress uwtable
define internal void @_ZNSt12_Vector_baseIN2cv4text12_GLOBAL__N_18SWTPointESaIS3_EE13_M_deallocateEPS3_m(ptr noundef nonnull align 8 dereferenceable(24) %0, ptr noundef %1, i64 noundef %2) #3 align 2 {
  %4 = alloca ptr, align 8
  %5 = alloca ptr, align 8
  %6 = alloca i64, align 8
  store ptr %0, ptr %4, align 8, !tbaa !198
  store ptr %1, ptr %5, align 8, !tbaa !152
  store i64 %2, ptr %6, align 8, !tbaa !84
  %7 = load ptr, ptr %4, align 8
  %8 = load ptr, ptr %5, align 8, !tbaa !152
  %9 = icmp ne ptr %8, null
  br i1 %9, label %10, label %14

10:                                               ; preds = %3
  %11 = getelementptr inbounds nuw %"struct.std::_Vector_base.16", ptr %7, i32 0, i32 0
  %12 = load ptr, ptr %5, align 8, !tbaa !152
  %13 = load i64, ptr %6, align 8, !tbaa !84
  call void @_ZNSt16allocator_traitsISaIN2cv4text12_GLOBAL__N_18SWTPointEEE10deallocateERS4_PS3_m(ptr noundef nonnull align 1 dereferenceable(1) %11, ptr noundef %12, i64 noundef %13)
  br label %14

14:                                               ; preds = %10, %3
  ret void
}

; Function Attrs: inlinehint mustprogress uwtable
define internal void @_ZSt8_DestroyIPN2cv4text12_GLOBAL__N_18SWTPointEEvT_S5_(ptr noundef %0, ptr noundef %1) #1 {
  %3 = alloca ptr, align 8
  %4 = alloca ptr, align 8
  store ptr %0, ptr %3, align 8, !tbaa !152
  store ptr %1, ptr %4, align 8, !tbaa !152
  %5 = load ptr, ptr %3, align 8, !tbaa !152
  %6 = load ptr, ptr %4, align 8, !tbaa !152
  call void @_ZNSt12_Destroy_auxILb1EE9__destroyIPN2cv4text12_GLOBAL__N_18SWTPointEEEvT_S7_(ptr noundef %5, ptr noundef %6)
  ret void
}

; Function Attrs: mustprogress nounwind uwtable
define internal void @_ZNSt12_Vector_baseIN2cv4text12_GLOBAL__N_18SWTPointESaIS3_EED2Ev(ptr noundef nonnull align 8 dereferenceable(24) %0) unnamed_addr #8 align 2 personality ptr @__gxx_personality_v0 {
  %2 = alloca ptr, align 8
  store ptr %0, ptr %2, align 8, !tbaa !198
  %3 = load ptr, ptr %2, align 8
  %4 = getelementptr inbounds nuw %"struct.std::_Vector_base.16", ptr %3, i32 0, i32 0
  %5 = getelementptr inbounds nuw %"struct.std::_Vector_base<cv::text::(anonymous namespace)::SWTPoint, std::allocator<cv::text::(anonymous namespace)::SWTPoint>>::_Vector_impl_data", ptr %4, i32 0, i32 0
  %6 = load ptr, ptr %5, align 8, !tbaa !196
  %7 = getelementptr inbounds nuw %"struct.std::_Vector_base.16", ptr %3, i32 0, i32 0
  %8 = getelementptr inbounds nuw %"struct.std::_Vector_base<cv::text::(anonymous namespace)::SWTPoint, std::allocator<cv::text::(anonymous namespace)::SWTPoint>>::_Vector_impl_data", ptr %7, i32 0, i32 2
  %9 = load ptr, ptr %8, align 8, !tbaa !189
  %10 = getelementptr inbounds nuw %"struct.std::_Vector_base.16", ptr %3, i32 0, i32 0
  %11 = getelementptr inbounds nuw %"struct.std::_Vector_base<cv::text::(anonymous namespace)::SWTPoint, std::allocator<cv::text::(anonymous namespace)::SWTPoint>>::_Vector_impl_data", ptr %10, i32 0, i32 0
  %12 = load ptr, ptr %11, align 8, !tbaa !196
  %13 = ptrtoint ptr %9 to i64
  %14 = ptrtoint ptr %12 to i64
  %15 = sub i64 %13, %14
  %16 = sdiv exact i64 %15, 12
  invoke void @_ZNSt12_Vector_baseIN2cv4text12_GLOBAL__N_18SWTPointESaIS3_EE13_M_deallocateEPS3_m(ptr noundef nonnull align 8 dereferenceable(24) %3, ptr noundef %6, i64 noundef %16)
          to label %17 unwind label %19

17:                                               ; preds = %1
  %18 = getelementptr inbounds nuw %"struct.std::_Vector_base.16", ptr %3, i32 0, i32 0
  call void @_ZNSt15__new_allocatorIN2cv4text12_GLOBAL__N_18SWTPointEED2Ev(ptr noundef nonnull align 8 dereferenceable(24) %18) #20
  ret void

19:                                               ; preds = %1
  %20 = landingpad { ptr, i32 }
          catch ptr null
  %21 = extractvalue { ptr, i32 } %20, 0
  call void @__clang_call_terminate(ptr %21) #21
  unreachable
}

; Function Attrs: inlinehint mustprogress uwtable
define internal void @_ZSt8_DestroyIPN2cv4text12_GLOBAL__N_18SWTPointES3_EvT_S5_RSaIT0_E(ptr noundef %0, ptr noundef %1, ptr noundef nonnull align 1 dereferenceable(1) %2) #1 {
  %4 = alloca ptr, align 8
  %5 = alloca ptr, align 8
  %6 = alloca ptr, align 8
  store ptr %0, ptr %4, align 8, !tbaa !152
  store ptr %1, ptr %5, align 8, !tbaa !152
  store ptr %2, ptr %6, align 8, !tbaa !202
  %7 = load ptr, ptr %4, align 8, !tbaa !152
  %8 = load ptr, ptr %5, align 8, !tbaa !152
  call void @_ZSt8_DestroyIPN2cv4text12_GLOBAL__N_18SWTPointEEvT_S5_(ptr noundef %7, ptr noundef %8)
  ret void
}

; Function Attrs: mustprogress nounwind uwtable
define internal noundef nonnull align 1 dereferenceable(1) ptr @_ZNSt12_Vector_baseIN2cv4text12_GLOBAL__N_18SWTPointESaIS3_EE19_M_get_Tp_allocatorEv(ptr noundef nonnull align 8 dereferenceable(24) %0) #8 align 2 {
  %2 = alloca ptr, align 8
  store ptr %0, ptr %2, align 8, !tbaa !198
  %3 = load ptr, ptr %2, align 8
  %4 = getelementptr inbounds nuw %"struct.std::_Vector_base.16", ptr %3, i32 0, i32 0
  ret ptr %4
}

; Function Attrs: mustprogress nounwind uwtable
define internal void @_ZNSt6vectorIN2cv4text12_GLOBAL__N_18SWTPointESaIS3_EED2Ev(ptr noundef nonnull align 8 dereferenceable(24) %0) unnamed_addr #8 align 2 personality ptr @__gxx_personality_v0 {
  %2 = alloca ptr, align 8
  store ptr %0, ptr %2, align 8, !tbaa !86
  %3 = load ptr, ptr %2, align 8
  %4 = getelementptr inbounds nuw %"struct.std::_Vector_base.16", ptr %3, i32 0, i32 0
  %5 = getelementptr inbounds nuw %"struct.std::_Vector_base<cv::text::(anonymous namespace)::SWTPoint, std::allocator<cv::text::(anonymous namespace)::SWTPoint>>::_Vector_impl_data", ptr %4, i32 0, i32 0
  %6 = load ptr, ptr %5, align 8, !tbaa !196
  %7 = getelementptr inbounds nuw %"struct.std::_Vector_base.16", ptr %3, i32 0, i32 0
  %8 = getelementptr inbounds nuw %"struct.std::_Vector_base<cv::text::(anonymous namespace)::SWTPoint, std::allocator<cv::text::(anonymous namespace)::SWTPoint>>::_Vector_impl_data", ptr %7, i32 0, i32 1
  %9 = load ptr, ptr %8, align 8, !tbaa !188
  %10 = call noundef nonnull align 1 dereferenceable(1) ptr @_ZNSt12_Vector_baseIN2cv4text12_GLOBAL__N_18SWTPointESaIS3_EE19_M_get_Tp_allocatorEv(ptr noundef nonnull align 8 dereferenceable(24) %3) #20
  invoke void @_ZSt8_DestroyIPN2cv4text12_GLOBAL__N_18SWTPointES3_EvT_S5_RSaIT0_E(ptr noundef %6, ptr noundef %9, ptr noundef nonnull align 1 dereferenceable(1) %10)
          to label %11 unwind label %12

11:                                               ; preds = %1
  call void @_ZNSt12_Vector_baseIN2cv4text12_GLOBAL__N_18SWTPointESaIS3_EED2Ev(ptr noundef nonnull align 8 dereferenceable(24) %3) #20
  ret void

12:                                               ; preds = %1
  %13 = landingpad { ptr, i32 }
          catch ptr null
  %14 = extractvalue { ptr, i32 } %13, 0
  call void @__clang_call_terminate(ptr %14) #21
  unreachable
}

; Function Attrs: inlinehint mustprogress nounwind uwtable
define internal void @_ZN2cv4text12_GLOBAL__N_13RayD2Ev(ptr noundef nonnull align 8 dereferenceable(48) %0) unnamed_addr #7 align 2 {
  %2 = alloca ptr, align 8
  store ptr %0, ptr %2, align 8, !tbaa !187
  %3 = load ptr, ptr %2, align 8
  %4 = getelementptr inbounds nuw %"struct.cv::text::(anonymous namespace)::Ray", ptr %3, i32 0, i32 2
  call void @_ZNSt6vectorIN2cv4text12_GLOBAL__N_18SWTPointESaIS3_EED2Ev(ptr noundef nonnull align 8 dereferenceable(24) %4) #20
  ret void
}

; Function Attrs: mustprogress nounwind uwtable
define internal void @_ZNSt15__new_allocatorIN2cv4text12_GLOBAL__N_13RayEE10deallocateEPS3_m(ptr noundef nonnull align 1 dereferenceable(1) %0, ptr noundef %1, i64 noundef %2) #8 align 2 {
  %4 = alloca ptr, align 8
  %5 = alloca ptr, align 8
  %6 = alloca i64, align 8
  store ptr %0, ptr %4, align 8, !tbaa !181
  store ptr %1, ptr %5, align 8, !tbaa !187
  store i64 %2, ptr %6, align 8, !tbaa !84
  %7 = load ptr, ptr %5, align 8, !tbaa !187
  call void @_ZdlPv(ptr noundef %7) #23
  ret void
}

; Function Attrs: inlinehint mustprogress nounwind uwtable
define internal void @_ZSt8_DestroyIN2cv4text12_GLOBAL__N_13RayEEvPT_(ptr noundef %0) #7 {
  %2 = alloca ptr, align 8
  store ptr %0, ptr %2, align 8, !tbaa !187
  %3 = load ptr, ptr %2, align 8, !tbaa !187
  call void @_ZN2cv4text12_GLOBAL__N_13RayD2Ev(ptr noundef nonnull align 8 dereferenceable(48) %3) #20
  ret void
}

; Function Attrs: mustprogress uwtable
define internal void @_ZNSt16allocator_traitsISaIN2cv4text12_GLOBAL__N_13RayEEE10deallocateERS4_PS3_m(ptr noundef nonnull align 1 dereferenceable(1) %0, ptr noundef %1, i64 noundef %2) #3 align 2 {
  %4 = alloca ptr, align 8
  %5 = alloca ptr, align 8
  %6 = alloca i64, align 8
  store ptr %0, ptr %4, align 8, !tbaa !176
  store ptr %1, ptr %5, align 8, !tbaa !187
  store i64 %2, ptr %6, align 8, !tbaa !84
  %7 = load ptr, ptr %4, align 8, !tbaa !176
  %8 = load ptr, ptr %5, align 8, !tbaa !187
  %9 = load i64, ptr %6, align 8, !tbaa !84
  call void @_ZNSt15__new_allocatorIN2cv4text12_GLOBAL__N_13RayEE10deallocateEPS3_m(ptr noundef nonnull align 1 dereferenceable(1) %7, ptr noundef %8, i64 noundef %9)
  ret void
}

; Function Attrs: mustprogress uwtable
define internal void @_ZNSt12_Destroy_auxILb0EE9__destroyIPN2cv4text12_GLOBAL__N_13RayEEEvT_S7_(ptr noundef %0, ptr noundef %1) #3 align 2 {
  %3 = alloca ptr, align 8
  %4 = alloca ptr, align 8
  store ptr %0, ptr %3, align 8, !tbaa !187
  store ptr %1, ptr %4, align 8, !tbaa !187
  br label %5

5:                                                ; preds = %11, %2
  %6 = load ptr, ptr %3, align 8, !tbaa !187
  %7 = load ptr, ptr %4, align 8, !tbaa !187
  %8 = icmp ne ptr %6, %7
  br i1 %8, label %9, label %14

9:                                                ; preds = %5
  %10 = load ptr, ptr %3, align 8, !tbaa !187
  call void @_ZSt8_DestroyIN2cv4text12_GLOBAL__N_13RayEEvPT_(ptr noundef %10)
  br label %11

11:                                               ; preds = %9
  %12 = load ptr, ptr %3, align 8, !tbaa !187
  %13 = getelementptr inbounds nuw %"struct.cv::text::(anonymous namespace)::Ray", ptr %12, i32 1
  store ptr %13, ptr %3, align 8, !tbaa !187
  br label %5, !llvm.loop !225

14:                                               ; preds = %5
  ret void
}

; Function Attrs: mustprogress nounwind uwtable
define internal void @_ZNSt15__new_allocatorIN2cv4text12_GLOBAL__N_13RayEED2Ev(ptr noundef nonnull align 1 dereferenceable(1) %0) unnamed_addr #8 align 2 {
  %2 = alloca ptr, align 8
  store ptr %0, ptr %2, align 8, !tbaa !181
  ret void
}

; Function Attrs: mustprogress uwtable
define internal void @_ZNSt12_Vector_baseIN2cv4text12_GLOBAL__N_13RayESaIS3_EE13_M_deallocateEPS3_m(ptr noundef nonnull align 8 dereferenceable(24) %0, ptr noundef %1, i64 noundef %2) #3 align 2 {
  %4 = alloca ptr, align 8
  %5 = alloca ptr, align 8
  %6 = alloca i64, align 8
  store ptr %0, ptr %4, align 8, !tbaa !172
  store ptr %1, ptr %5, align 8, !tbaa !187
  store i64 %2, ptr %6, align 8, !tbaa !84
  %7 = load ptr, ptr %4, align 8
  %8 = load ptr, ptr %5, align 8, !tbaa !187
  %9 = icmp ne ptr %8, null
  br i1 %9, label %10, label %14

10:                                               ; preds = %3
  %11 = getelementptr inbounds nuw %"struct.std::_Vector_base", ptr %7, i32 0, i32 0
  %12 = load ptr, ptr %5, align 8, !tbaa !187
  %13 = load i64, ptr %6, align 8, !tbaa !84
  call void @_ZNSt16allocator_traitsISaIN2cv4text12_GLOBAL__N_13RayEEE10deallocateERS4_PS3_m(ptr noundef nonnull align 1 dereferenceable(1) %11, ptr noundef %12, i64 noundef %13)
  br label %14

14:                                               ; preds = %10, %3
  ret void
}

; Function Attrs: inlinehint mustprogress uwtable
define internal void @_ZSt8_DestroyIPN2cv4text12_GLOBAL__N_13RayEEvT_S5_(ptr noundef %0, ptr noundef %1) #1 {
  %3 = alloca ptr, align 8
  %4 = alloca ptr, align 8
  store ptr %0, ptr %3, align 8, !tbaa !187
  store ptr %1, ptr %4, align 8, !tbaa !187
  %5 = load ptr, ptr %3, align 8, !tbaa !187
  %6 = load ptr, ptr %4, align 8, !tbaa !187
  call void @_ZNSt12_Destroy_auxILb0EE9__destroyIPN2cv4text12_GLOBAL__N_13RayEEEvT_S7_(ptr noundef %5, ptr noundef %6)
  ret void
}

; Function Attrs: noinline noreturn nounwind uwtable
define linkonce_odr hidden void @__clang_call_terminate(ptr noundef %0) #11 comdat {
  %2 = call ptr @__cxa_begin_catch(ptr %0) #20
  call void @_ZSt9terminatev() #21
  unreachable
}

; Function Attrs: mustprogress nounwind uwtable
define internal void @_ZNSt12_Vector_baseIN2cv4text12_GLOBAL__N_13RayESaIS3_EED2Ev(ptr noundef nonnull align 8 dereferenceable(24) %0) unnamed_addr #8 align 2 personality ptr @__gxx_personality_v0 {
  %2 = alloca ptr, align 8
  store ptr %0, ptr %2, align 8, !tbaa !172
  %3 = load ptr, ptr %2, align 8
  %4 = getelementptr inbounds nuw %"struct.std::_Vector_base", ptr %3, i32 0, i32 0
  %5 = getelementptr inbounds nuw %"struct.std::_Vector_base<cv::text::(anonymous namespace)::Ray, std::allocator<cv::text::(anonymous namespace)::Ray>>::_Vector_impl_data", ptr %4, i32 0, i32 0
  %6 = load ptr, ptr %5, align 8, !tbaa !166
  %7 = getelementptr inbounds nuw %"struct.std::_Vector_base", ptr %3, i32 0, i32 0
  %8 = getelementptr inbounds nuw %"struct.std::_Vector_base<cv::text::(anonymous namespace)::Ray, std::allocator<cv::text::(anonymous namespace)::Ray>>::_Vector_impl_data", ptr %7, i32 0, i32 2
  %9 = load ptr, ptr %8, align 8, !tbaa !180
  %10 = getelementptr inbounds nuw %"struct.std::_Vector_base", ptr %3, i32 0, i32 0
  %11 = getelementptr inbounds nuw %"struct.std::_Vector_base<cv::text::(anonymous namespace)::Ray, std::allocator<cv::text::(anonymous namespace)::Ray>>::_Vector_impl_data", ptr %10, i32 0, i32 0
  %12 = load ptr, ptr %11, align 8, !tbaa !166
  %13 = ptrtoint ptr %9 to i64
  %14 = ptrtoint ptr %12 to i64
  %15 = sub i64 %13, %14
  %16 = sdiv exact i64 %15, 48
  invoke void @_ZNSt12_Vector_baseIN2cv4text12_GLOBAL__N_13RayESaIS3_EE13_M_deallocateEPS3_m(ptr noundef nonnull align 8 dereferenceable(24) %3, ptr noundef %6, i64 noundef %16)
          to label %17 unwind label %19

17:                                               ; preds = %1
  %18 = getelementptr inbounds nuw %"struct.std::_Vector_base", ptr %3, i32 0, i32 0
  call void @_ZNSt15__new_allocatorIN2cv4text12_GLOBAL__N_13RayEED2Ev(ptr noundef nonnull align 8 dereferenceable(24) %18) #20
  ret void

19:                                               ; preds = %1
  %20 = landingpad { ptr, i32 }
          catch ptr null
  %21 = extractvalue { ptr, i32 } %20, 0
  call void @__clang_call_terminate(ptr %21) #21
  unreachable
}

; Function Attrs: inlinehint mustprogress uwtable
define internal void @_ZSt8_DestroyIPN2cv4text12_GLOBAL__N_13RayES3_EvT_S5_RSaIT0_E(ptr noundef %0, ptr noundef %1, ptr noundef nonnull align 1 dereferenceable(1) %2) #1 {
  %4 = alloca ptr, align 8
  %5 = alloca ptr, align 8
  %6 = alloca ptr, align 8
  store ptr %0, ptr %4, align 8, !tbaa !187
  store ptr %1, ptr %5, align 8, !tbaa !187
  store ptr %2, ptr %6, align 8, !tbaa !176
  %7 = load ptr, ptr %4, align 8, !tbaa !187
  %8 = load ptr, ptr %5, align 8, !tbaa !187
  call void @_ZSt8_DestroyIPN2cv4text12_GLOBAL__N_13RayEEvT_S5_(ptr noundef %7, ptr noundef %8)
  ret void
}

; Function Attrs: mustprogress nounwind uwtable
define internal noundef nonnull align 1 dereferenceable(1) ptr @_ZNSt12_Vector_baseIN2cv4text12_GLOBAL__N_13RayESaIS3_EE19_M_get_Tp_allocatorEv(ptr noundef nonnull align 8 dereferenceable(24) %0) #8 align 2 {
  %2 = alloca ptr, align 8
  store ptr %0, ptr %2, align 8, !tbaa !172
  %3 = load ptr, ptr %2, align 8
  %4 = getelementptr inbounds nuw %"struct.std::_Vector_base", ptr %3, i32 0, i32 0
  ret ptr %4
}

; Function Attrs: mustprogress nounwind uwtable
define internal void @_ZNSt6vectorIN2cv4text12_GLOBAL__N_13RayESaIS3_EED2Ev(ptr noundef nonnull align 8 dereferenceable(24) %0) unnamed_addr #8 align 2 personality ptr @__gxx_personality_v0 {
  %2 = alloca ptr, align 8
  store ptr %0, ptr %2, align 8, !tbaa !31
  %3 = load ptr, ptr %2, align 8
  %4 = getelementptr inbounds nuw %"struct.std::_Vector_base", ptr %3, i32 0, i32 0
  %5 = getelementptr inbounds nuw %"struct.std::_Vector_base<cv::text::(anonymous namespace)::Ray, std::allocator<cv::text::(anonymous namespace)::Ray>>::_Vector_impl_data", ptr %4, i32 0, i32 0
  %6 = load ptr, ptr %5, align 8, !tbaa !166
  %7 = getelementptr inbounds nuw %"struct.std::_Vector_base", ptr %3, i32 0, i32 0
  %8 = getelementptr inbounds nuw %"struct.std::_Vector_base<cv::text::(anonymous namespace)::Ray, std::allocator<cv::text::(anonymous namespace)::Ray>>::_Vector_impl_data", ptr %7, i32 0, i32 1
  %9 = load ptr, ptr %8, align 8, !tbaa !169
  %10 = call noundef nonnull align 1 dereferenceable(1) ptr @_ZNSt12_Vector_baseIN2cv4text12_GLOBAL__N_13RayESaIS3_EE19_M_get_Tp_allocatorEv(ptr noundef nonnull align 8 dereferenceable(24) %3) #20
  invoke void @_ZSt8_DestroyIPN2cv4text12_GLOBAL__N_13RayES3_EvT_S5_RSaIT0_E(ptr noundef %6, ptr noundef %9, ptr noundef nonnull align 1 dereferenceable(1) %10)
          to label %11 unwind label %12

11:                                               ; preds = %1
  call void @_ZNSt12_Vector_baseIN2cv4text12_GLOBAL__N_13RayESaIS3_EED2Ev(ptr noundef nonnull align 8 dereferenceable(24) %3) #20
  ret void

12:                                               ; preds = %1
  %13 = landingpad { ptr, i32 }
          catch ptr null
  %14 = extractvalue { ptr, i32 } %13, 0
  call void @__clang_call_terminate(ptr %14) #21
  unreachable
}